; Function Attrs: mustprogress uwtable
define hidden noundef zeroext i1 @_ZNK17array_decl_plugin8is_valueEP3app(ptr nocapture noundef nonnull readonly align 8 dereferenceable(136) %this, ptr nocapture noundef readonly %_e) unnamed_addr #3 align 2 {
entry:
  %ref.tmp.i.i = alloca %class.symbol, align 8
  %m_manager = getelementptr inbounds i8, ptr %this, i64 8
  %0 = load ptr, ptr %m_manager, align 8
  call void @llvm.lifetime.start.p0(i64 8, ptr nonnull %ref.tmp.i.i)
  call void @_ZN6symbolC1EPKc(ptr noundef nonnull align 8 dereferenceable(8) %ref.tmp.i.i, ptr noundef nonnull @.str.74)
  %m_family_manager.i.i.i = getelementptr inbounds i8, ptr %0, i64 560
  %call.i.i.i = call noundef i32 @_ZN14family_manager12mk_family_idERK6symbol(ptr noundef nonnull align 8 dereferenceable(56) %m_family_manager.i.i.i, ptr noundef nonnull align 8 dereferenceable(8) %ref.tmp.i.i)
  call void @llvm.lifetime.end.p0(i64 8, ptr nonnull %ref.tmp.i.i)
  %m_kind.i.i.i.i27 = getelementptr inbounds i8, ptr %_e, i64 4
  %bf.load.i.i.i.i28 = load i32, ptr %m_kind.i.i.i.i27, align 4
  %bf.clear.i.i.i.i29 = and i32 %bf.load.i.i.i.i28, 65535
  %cmp.i.i.i30 = icmp eq i32 %bf.clear.i.i.i.i29, 0
  br i1 %cmp.i.i.i30, label %land.rhs.i.i.i, label %return

land.rhs.i.i.i:                                   ; preds = %entry, %for.end
  %e.031 = phi ptr [ %18, %for.end ], [ %_e, %entry ]
  %m_decl.i.i.i.i = getelementptr inbounds i8, ptr %e.031, i64 16
  %1 = load ptr, ptr %m_decl.i.i.i.i, align 8
  %m_info.i.i.i.i.i = getelementptr inbounds i8, ptr %1, i64 24
  %2 = load ptr, ptr %m_info.i.i.i.i.i, align 8
  %tobool.not.i.i.i.i.i = icmp eq ptr %2, null
  br i1 %tobool.not.i.i.i.i.i, label %land.rhs.i.i, label %_ZNK17array_recognizers8is_constEP4expr.exit.i

_ZNK17array_recognizers8is_constEP4expr.exit.i:   ; preds = %land.rhs.i.i.i
  %3 = load i32, ptr %2, align 8
  %cmp.i.i.i.i.i.i = icmp eq i32 %3, %call.i.i.i
  %m_kind.i.i.i.i.i.i = getelementptr inbounds i8, ptr %2, i64 4
  %4 = load i32, ptr %m_kind.i.i.i.i.i.i, align 4
  %cmp2.i.i.i.i.i.i = icmp eq i32 %4, 2
  %5 = select i1 %cmp.i.i.i.i.i.i, i1 %cmp2.i.i.i.i.i.i, i1 false
  br i1 %5, label %if.then, label %land.rhs.i.i

if.then:                                          ; preds = %_ZNK17array_recognizers8is_constEP4expr.exit.i
  %m_args.i.i = getelementptr inbounds i8, ptr %e.031, i64 32
  %6 = load ptr, ptr %m_args.i.i, align 8
  %7 = load ptr, ptr %m_manager, align 8
  %call3 = call noundef zeroext i1 @_ZNK11ast_manager8is_valueEP4expr(ptr noundef nonnull align 8 dereferenceable(976) %7, ptr noundef %6)
  br label %return

land.rhs.i.i:                                     ; preds = %_ZNK17array_recognizers8is_constEP4expr.exit.i, %land.rhs.i.i.i
  %m_decl.i.i.i = getelementptr inbounds i8, ptr %e.031, i64 16
  %8 = load ptr, ptr %m_decl.i.i.i, align 8
  %m_info.i.i.i.i = getelementptr inbounds i8, ptr %8, i64 24
  %9 = load ptr, ptr %m_info.i.i.i.i, align 8
  %tobool.not.i.i.i.i = icmp eq ptr %9, null
  br i1 %tobool.not.i.i.i.i, label %return, label %_ZNK17array_recognizers8is_storeEP4expr.exit

_ZNK17array_recognizers8is_storeEP4expr.exit:     ; preds = %land.rhs.i.i
  %10 = load i32, ptr %9, align 8
  %cmp.i.i.i.i.i = icmp eq i32 %10, %call.i.i.i
  %m_kind.i.i.i.i.i = getelementptr inbounds i8, ptr %9, i64 4
  %11 = load i32, ptr %m_kind.i.i.i.i.i, align 4
  %cmp2.i.i.i.i.i = icmp eq i32 %11, 0
  %12 = select i1 %cmp.i.i.i.i.i, i1 %cmp2.i.i.i.i.i, i1 false
  br i1 %12, label %for.cond.preheader, label %return

for.cond.preheader:                               ; preds = %_ZNK17array_recognizers8is_storeEP4expr.exit
  %m_num_args.i = getelementptr inbounds i8, ptr %e.031, i64 24
  %13 = load i32, ptr %m_num_args.i, align 8
  %cmp15 = icmp ugt i32 %13, 1
  br i1 %cmp15, label %for.body.lr.ph, label %for.end

for.body.lr.ph:                                   ; preds = %for.cond.preheader
  %m_args.i = getelementptr inbounds i8, ptr %e.031, i64 32
  br label %for.body

for.cond:                                         ; preds = %for.body
  %indvars.iv.next = add nuw nsw i64 %indvars.iv, 1
  %14 = load i32, ptr %m_num_args.i, align 8
  %15 = zext i32 %14 to i64
  %cmp = icmp ult i64 %indvars.iv.next, %15
  br i1 %cmp, label %for.body, label %for.end, !llvm.loop !23

for.body:                                         ; preds = %for.body.lr.ph, %for.cond
  %indvars.iv = phi i64 [ 1, %for.body.lr.ph ], [ %indvars.iv.next, %for.cond ]
  %16 = load ptr, ptr %m_manager, align 8
  %arrayidx.i = getelementptr inbounds [0 x ptr], ptr %m_args.i, i64 0, i64 %indvars.iv
  %17 = load ptr, ptr %arrayidx.i, align 8
  %call11 = call noundef zeroext i1 @_ZNK11ast_manager8is_valueEP4expr(ptr noundef nonnull align 8 dereferenceable(976) %16, ptr noundef %17)
  br i1 %call11, label %for.cond, label %return

for.end:                                          ; preds = %for.cond, %for.cond.preheader
  %m_args.i3 = getelementptr inbounds i8, ptr %e.031, i64 32
  %18 = load ptr, ptr %m_args.i3, align 8
  %m_kind.i.i.i.i = getelementptr inbounds i8, ptr %18, i64 4
  %bf.load.i.i.i.i = load i32, ptr %m_kind.i.i.i.i, align 4
  %bf.clear.i.i.i.i = and i32 %bf.load.i.i.i.i, 65535
  %cmp.i.i.i = icmp eq i32 %bf.clear.i.i.i.i, 0
  br i1 %cmp.i.i.i, label %land.rhs.i.i.i, label %return, !llvm.loop !24

return:                                           ; preds = %for.end, %_ZNK17array_recognizers8is_storeEP4expr.exit, %land.rhs.i.i, %for.body, %entry, %if.then
  %retval.0 = phi i1 [ %call3, %if.then ], [ false, %entry ], [ false, %for.body ], [ false, %land.rhs.i.i ], [ false, %_ZNK17array_recognizers8is_storeEP4expr.exit ], [ false, %for.end ]
  ret i1 %retval.0
}